; Function Attrs: nounwind uwtable
define ptr @l_Std_Internal_IO_Async_Waiter_race___rarg___lambda__2(ptr noundef %0, ptr noundef %1, ptr noundef %2, i8 noundef zeroext %3) local_unnamed_addr #0 {
  %5 = icmp eq i8 %3, 0
  br i1 %5, label %6, label %33

6:                                                ; preds = %4
  %7 = ptrtoint ptr %2 to i64
  %8 = and i64 %7, 1
  %.not23 = icmp eq i64 %8, 0
  br i1 %.not23, label %9, label %lean_dec.exit12

9:                                                ; preds = %6
  %10 = load i32, ptr %2, align 4, !tbaa !4
  %11 = icmp sgt i32 %10, 1
  br i1 %11, label %12, label %14, !prof !11

12:                                               ; preds = %9
  %13 = add nsw i32 %10, -1
  store i32 %13, ptr %2, align 4, !tbaa !4
  br label %lean_dec.exit12

14:                                               ; preds = %9
  %.not.i = icmp eq i32 %10, 0
  br i1 %.not.i, label %lean_dec.exit12, label %15

15:                                               ; preds = %14
  tail call void @lean_dec_ref_cold(ptr noundef nonnull %2) #5
  br label %lean_dec.exit12

lean_dec.exit12:                                  ; preds = %15, %14, %12, %6
  %16 = ptrtoint ptr %1 to i64
  %17 = and i64 %16, 1
  %.not24 = icmp eq i64 %17, 0
  br i1 %.not24, label %18, label %lean_dec.exit11

18:                                               ; preds = %lean_dec.exit12
  %19 = load i32, ptr %1, align 4, !tbaa !4
  %20 = icmp sgt i32 %19, 1
  br i1 %20, label %21, label %23, !prof !11

21:                                               ; preds = %18
  %22 = add nsw i32 %19, -1
  store i32 %22, ptr %1, align 4, !tbaa !4
  br label %lean_dec.exit11

23:                                               ; preds = %18
  %.not.i14 = icmp eq i32 %19, 0
  br i1 %.not.i14, label %lean_dec.exit11, label %24

24:                                               ; preds = %23
  tail call void @lean_dec_ref_cold(ptr noundef nonnull %1) #5
  br label %lean_dec.exit11

lean_dec.exit11:                                  ; preds = %24, %23, %21, %lean_dec.exit12
  %25 = ptrtoint ptr %0 to i64
  %26 = and i64 %25, 1
  %.not25 = icmp eq i64 %26, 0
  br i1 %.not25, label %27, label %lean_inc.exit13

27:                                               ; preds = %lean_dec.exit11
  %.val.i = load i32, ptr %0, align 4, !tbaa !4
  %28 = icmp sgt i32 %.val.i, 0
  br i1 %28, label %29, label %31, !prof !11

29:                                               ; preds = %27
  %30 = add nuw i32 %.val.i, 1
  store i32 %30, ptr %0, align 4, !tbaa !4
  br label %lean_inc.exit13

31:                                               ; preds = %27
  %.not.i18 = icmp eq i32 %.val.i, 0
  br i1 %.not.i18, label %lean_inc.exit13, label %32

32:                                               ; preds = %31
  tail call void @lean_inc_ref_cold(ptr noundef nonnull %0) #5
  br label %lean_inc.exit13

33:                                               ; preds = %4
  %34 = getelementptr inbounds nuw i8, ptr %1, i64 16
  %35 = load ptr, ptr %34, align 8, !tbaa !9
  %36 = ptrtoint ptr %35 to i64
  %37 = and i64 %36, 1
  %.not = icmp eq i64 %37, 0
  br i1 %.not, label %38, label %lean_inc.exit

38:                                               ; preds = %33
  %.val.i19 = load i32, ptr %35, align 4, !tbaa !4
  %39 = icmp sgt i32 %.val.i19, 0
  br i1 %39, label %40, label %42, !prof !11

40:                                               ; preds = %38
  %41 = add nuw i32 %.val.i19, 1
  store i32 %41, ptr %35, align 4, !tbaa !4
  br label %lean_inc.exit

42:                                               ; preds = %38
  %.not.i20 = icmp eq i32 %.val.i19, 0
  br i1 %.not.i20, label %lean_inc.exit, label %43

43:                                               ; preds = %42
  tail call void @lean_inc_ref_cold(ptr noundef nonnull %35) #5
  br label %lean_inc.exit

lean_inc.exit:                                    ; preds = %43, %42, %40, %33
  %44 = ptrtoint ptr %1 to i64
  %45 = and i64 %44, 1
  %.not22 = icmp eq i64 %45, 0
  br i1 %.not22, label %46, label %lean_dec.exit

46:                                               ; preds = %lean_inc.exit
  %47 = load i32, ptr %1, align 4, !tbaa !4
  %48 = icmp sgt i32 %47, 1
  br i1 %48, label %49, label %51, !prof !11

49:                                               ; preds = %46
  %50 = add nsw i32 %47, -1
  store i32 %50, ptr %1, align 4, !tbaa !4
  br label %lean_dec.exit

51:                                               ; preds = %46
  %.not.i16 = icmp eq i32 %47, 0
  br i1 %.not.i16, label %lean_dec.exit, label %52

52:                                               ; preds = %51
  tail call void @lean_dec_ref_cold(ptr noundef nonnull %1) #5
  br label %lean_dec.exit

lean_dec.exit:                                    ; preds = %52, %51, %49, %lean_inc.exit
  %53 = tail call ptr @lean_apply_1(ptr noundef %2, ptr noundef %35) #5
  br label %lean_inc.exit13

lean_inc.exit13:                                  ; preds = %lean_dec.exit11, %29, %31, %32, %lean_dec.exit
  %.0 = phi ptr [ %53, %lean_dec.exit ], [ %0, %32 ], [ %0, %31 ], [ %0, %29 ], [ %0, %lean_dec.exit11 ]
  ret ptr %.0
}